; ModuleID = '29/1071.c'
source_filename = "29/1071.c"
target datalayout = "e-m:e-p270:32:32-p271:32:32-p272:64:64-i64:64-f80:128-n8:16:32:64-S128"
target triple = "x86_64-pc-linux-gnu"

@.str = private unnamed_addr constant [3 x i8] c"%d\00", align 1
@.str.1 = private unnamed_addr constant [7 x i8] c"%.3lf\0A\00", align 1

; Function Attrs: noinline nounwind uwtable
define dso_local i32 @main() #0 {
  %1 = alloca i32, align 4
  %2 = alloca i32, align 4
  %3 = alloca i32, align 4
  %4 = alloca i32, align 4
  %5 = alloca double, align 8
  %6 = alloca double, align 8
  %7 = alloca [100 x i32], align 16
  %8 = alloca [100 x double], align 16
  store i32 0, i32* %1, align 4
  store double 2.000000e+00, double* %5, align 8
  store double 1.000000e+00, double* %6, align 8
  %9 = call i32 (i8*, ...) @__isoc99_scanf(i8* getelementptr inbounds ([3 x i8], [3 x i8]* @.str, i64 0, i64 0), i32* %2)
  store i32 0, i32* %3, align 4
  br label %10

10:                                               ; preds = %19, %0
  %11 = load i32, i32* %3, align 4
  %12 = load i32, i32* %2, align 4
  %13 = icmp slt i32 %11, %12
  br i1 %13, label %14, label %22

14:                                               ; preds = %10
  %15 = load i32, i32* %3, align 4
  %16 = sext i32 %15 to i64
  %17 = getelementptr inbounds [100 x i32], [100 x i32]* %7, i64 0, i64 %16
  %18 = call i32 (i8*, ...) @__isoc99_scanf(i8* getelementptr inbounds ([3 x i8], [3 x i8]* @.str, i64 0, i64 0), i32* %17)
  br label %19

19:                                               ; preds = %14
  %20 = load i32, i32* %3, align 4
  %21 = add nsw i32 %20, 1
  store i32 %21, i32* %3, align 4
  br label %10

22:                                               ; preds = %10
  store i32 0, i32* %3, align 4
  br label %23

23:                                               ; preds = %31, %22
  %24 = load i32, i32* %3, align 4
  %25 = load i32, i32* %2, align 4
  %26 = icmp slt i32 %24, %25
  br i1 %26, label %27, label %34

27:                                               ; preds = %23
  %28 = load i32, i32* %3, align 4
  %29 = sext i32 %28 to i64
  %30 = getelementptr inbounds [100 x double], [100 x double]* %8, i64 0, i64 %29
  store double 0.000000e+00, double* %30, align 8
  br label %31

31:                                               ; preds = %27
  %32 = load i32, i32* %3, align 4
  %33 = add nsw i32 %32, 1
  store i32 %33, i32* %3, align 4
  br label %23

34:                                               ; preds = %23
  store i32 0, i32* %3, align 4
  br label %35

35:                                               ; preds = %72, %34
  %36 = load i32, i32* %3, align 4
  %37 = load i32, i32* %2, align 4
  %38 = icmp slt i32 %36, %37
  br i1 %38, label %39, label %75

39:                                               ; preds = %35
  store i32 0, i32* %4, align 4
  br label %40

40:                                               ; preds = %63, %39
  %41 = load i32, i32* %4, align 4
  %42 = load i32, i32* %3, align 4
  %43 = sext i32 %42 to i64
  %44 = getelementptr inbounds [100 x i32], [100 x i32]* %7, i64 0, i64 %43
  %45 = load i32, i32* %44, align 4
  %46 = icmp slt i32 %41, %45
  br i1 %46, label %47, label %66

47:                                               ; preds = %40
  %48 = load double, double* %5, align 8
  %49 = fmul double 1.000000e+00, %48
  %50 = load double, double* %6, align 8
  %51 = fdiv double %49, %50
  %52 = load i32, i32* %3, align 4
  %53 = sext i32 %52 to i64
  %54 = getelementptr inbounds [100 x double], [100 x double]* %8, i64 0, i64 %53
  %55 = load double, double* %54, align 8
  %56 = fadd double %55, %51
  store double %56, double* %54, align 8
  %57 = load double, double* %5, align 8
  %58 = load double, double* %6, align 8
  %59 = fadd double %57, %58
  store double %59, double* %5, align 8
  %60 = load double, double* %5, align 8
  %61 = load double, double* %6, align 8
  %62 = fsub double %60, %61
  store double %62, double* %6, align 8
  br label %63

63:                                               ; preds = %47
  %64 = load i32, i32* %4, align 4
  %65 = add nsw i32 %64, 1
  store i32 %65, i32* %4, align 4
  br label %40

66:                                               ; preds = %40
  %67 = load i32, i32* %3, align 4
  %68 = sext i32 %67 to i64
  %69 = getelementptr inbounds [100 x double], [100 x double]* %8, i64 0, i64 %68
  %70 = load double, double* %69, align 8
  %71 = call i32 (i8*, ...) @printf(i8* getelementptr inbounds ([7 x i8], [7 x i8]* @.str.1, i64 0, i64 0), double %70)
  store double 2.000000e+00, double* %5, align 8
  store double 1.000000e+00, double* %6, align 8
  br label %72

72:                                               ; preds = %66
  %73 = load i32, i32* %3, align 4
  %74 = add nsw i32 %73, 1
  store i32 %74, i32* %3, align 4
  br label %35

75:                                               ; preds = %35
  ret i32 0
}

declare dso_local i32 @__isoc99_scanf(i8*, ...) #1

declare dso_local i32 @printf(i8*, ...) #1


!llvm.module.flags = !{!0}
!llvm.ident = !{!1}

!0 = !{i32 1, !"wchar_size", i32 4}
!1 = !{!"clang version 10.0.0-4ubuntu1 "}
