; ModuleID = 'source-C-CXX/28/1071.c'
source_filename = "source-C-CXX/28/1071.c"
target datalayout = "e-m:e-p270:32:32-p271:32:32-p272:64:64-i64:64-f80:128-n8:16:32:64-S128"
target triple = "x86_64-pc-linux-gnu"

@.str = private unnamed_addr constant [3 x i8] c"%d\00", align 1
@.str.1 = private unnamed_addr constant [7 x i8] c"%.3lf\0A\00", align 1

; Function Attrs: nofree nounwind sspstrong uwtable
define dso_local i32 @main() local_unnamed_addr #0 {
  %1 = alloca i32, align 4
  %2 = alloca [100 x i32], align 16
  %3 = alloca [100 x double], align 16
  %4 = bitcast [100 x double]* %3 to i8*
  %5 = bitcast i32* %1 to i8*
  call void @llvm.lifetime.start.p0i8(i64 4, i8* nonnull %5) #4
  %6 = bitcast [100 x i32]* %2 to i8*
  call void @llvm.lifetime.start.p0i8(i64 400, i8* nonnull %6) #4
  call void @llvm.lifetime.start.p0i8(i64 800, i8* nonnull %4) #4
  %7 = call i32 (i8*, ...) @__isoc99_scanf(i8* getelementptr inbounds ([3 x i8], [3 x i8]* @.str, i64 0, i64 0), i32* nonnull %1)
  %8 = load i32, i32* %1, align 4, !tbaa !5
  %9 = icmp sgt i32 %8, 0
  br i1 %9, label %12, label %68

10:                                               ; preds = %12
  %11 = icmp sgt i32 %17, 0
  br i1 %11, label %20, label %68

12:                                               ; preds = %0, %12
  %13 = phi i64 [ %16, %12 ], [ 0, %0 ]
  %14 = getelementptr inbounds [100 x i32], [100 x i32]* %2, i64 0, i64 %13
  %15 = call i32 (i8*, ...) @__isoc99_scanf(i8* getelementptr inbounds ([3 x i8], [3 x i8]* @.str, i64 0, i64 0), i32* nonnull %14)
  %16 = add nuw nsw i64 %13, 1
  %17 = load i32, i32* %1, align 4, !tbaa !5
  %18 = sext i32 %17 to i64
  %19 = icmp slt i64 %16, %18
  br i1 %19, label %12, label %10, !llvm.loop !9

20:                                               ; preds = %10
  %21 = zext i32 %17 to i64
  %22 = shl nuw nsw i64 %21, 3
  call void @llvm.memset.p0i8.i64(i8* nonnull align 16 %4, i8 0, i64 %22, i1 false)
  br label %23

23:                                               ; preds = %20, %61
  %24 = phi i64 [ 0, %20 ], [ %64, %61 ]
  %25 = getelementptr inbounds [100 x i32], [100 x i32]* %2, i64 0, i64 %24
  %26 = load i32, i32* %25, align 4, !tbaa !5
  %27 = getelementptr inbounds [100 x double], [100 x double]* %3, i64 0, i64 %24
  %28 = icmp sgt i32 %26, 0
  %29 = load double, double* %27, align 8, !tbaa !11
  br i1 %28, label %30, label %61

30:                                               ; preds = %23
  %31 = and i32 %26, 1
  %32 = icmp eq i32 %26, 1
  br i1 %32, label %50, label %33

33:                                               ; preds = %30
  %34 = and i32 %26, -2
  br label %35

35:                                               ; preds = %35, %33
  %36 = phi double [ %29, %33 ], [ %45, %35 ]
  %37 = phi double [ 1.000000e+00, %33 ], [ %47, %35 ]
  %38 = phi double [ 2.000000e+00, %33 ], [ %46, %35 ]
  %39 = phi i32 [ %34, %33 ], [ %48, %35 ]
  %40 = fdiv double %38, %37
  %41 = fadd double %40, %36
  %42 = fadd double %38, %37
  %43 = fsub double %42, %37
  %44 = fdiv double %42, %43
  %45 = fadd double %44, %41
  %46 = fadd double %42, %43
  %47 = fsub double %46, %43
  %48 = add i32 %39, -2
  %49 = icmp eq i32 %48, 0
  br i1 %49, label %50, label %35, !llvm.loop !13

50:                                               ; preds = %35, %30
  %51 = phi double [ undef, %30 ], [ %45, %35 ]
  %52 = phi double [ %29, %30 ], [ %45, %35 ]
  %53 = phi double [ 1.000000e+00, %30 ], [ %47, %35 ]
  %54 = phi double [ 2.000000e+00, %30 ], [ %46, %35 ]
  %55 = icmp eq i32 %31, 0
  br i1 %55, label %59, label %56

56:                                               ; preds = %50
  %57 = fdiv double %54, %53
  %58 = fadd double %57, %52
  br label %59

59:                                               ; preds = %50, %56
  %60 = phi double [ %51, %50 ], [ %58, %56 ]
  store double %60, double* %27, align 8, !tbaa !11
  br label %61

61:                                               ; preds = %23, %59
  %62 = phi double [ %60, %59 ], [ %29, %23 ]
  %63 = call i32 (i8*, ...) @printf(i8* nonnull dereferenceable(1) getelementptr inbounds ([7 x i8], [7 x i8]* @.str.1, i64 0, i64 0), double %62)
  %64 = add nuw nsw i64 %24, 1
  %65 = load i32, i32* %1, align 4, !tbaa !5
  %66 = sext i32 %65 to i64
  %67 = icmp slt i64 %64, %66
  br i1 %67, label %23, label %68, !llvm.loop !14

68:                                               ; preds = %61, %10, %0
  call void @llvm.lifetime.end.p0i8(i64 800, i8* nonnull %4) #4
  call void @llvm.lifetime.end.p0i8(i64 400, i8* nonnull %6) #4
  call void @llvm.lifetime.end.p0i8(i64 4, i8* nonnull %5) #4
  ret i32 0
}

; Function Attrs: argmemonly mustprogress nofree nosync nounwind willreturn
declare void @llvm.lifetime.start.p0i8(i64 immarg, i8* nocapture) #1

; Function Attrs: nofree nounwind
declare noundef i32 @__isoc99_scanf(i8* nocapture noundef readonly, ...) local_unnamed_addr #2

; Function Attrs: nofree nounwind
declare noundef i32 @printf(i8* nocapture noundef readonly, ...) local_unnamed_addr #2

; Function Attrs: argmemonly mustprogress nofree nosync nounwind willreturn
declare void @llvm.lifetime.end.p0i8(i64 immarg, i8* nocapture) #1

; Function Attrs: argmemonly nofree nounwind willreturn writeonly
declare void @llvm.memset.p0i8.i64(i8* nocapture writeonly, i8, i64, i1 immarg) #3


!llvm.module.flags = !{!0, !1, !2, !3}
!llvm.ident = !{!4}

!0 = !{i32 1, !"wchar_size", i32 4}
!1 = !{i32 7, !"PIC Level", i32 2}
!2 = !{i32 7, !"PIE Level", i32 2}
!3 = !{i32 7, !"uwtable", i32 1}
!4 = !{!"clang version 13.0.0"}
!5 = !{!6, !6, i64 0}
!6 = !{!"int", !7, i64 0}
!7 = !{!"omnipotent char", !8, i64 0}
!8 = !{!"Simple C/C++ TBAA"}
!9 = distinct !{!9, !10}
!10 = !{!"llvm.loop.mustprogress"}
!11 = !{!12, !12, i64 0}
!12 = !{!"double", !7, i64 0}
!13 = distinct !{!13, !10}
!14 = distinct !{!14, !10}
